; ModuleID = '54/1035.c'
source_filename = "54/1035.c"
target datalayout = "e-m:e-p270:32:32-p271:32:32-p272:64:64-i64:64-f80:128-n8:16:32:64-S128"
target triple = "x86_64-pc-linux-gnu"

@.str = private unnamed_addr constant [5 x i8] c"%d%d\00", align 1
@.str.1 = private unnamed_addr constant [4 x i8] c"%d\0A\00", align 1

; Function Attrs: noinline nounwind uwtable
define dso_local i32 @main() #0 {
  %1 = alloca i32, align 4
  %2 = alloca i32, align 4
  %3 = alloca i32, align 4
  store i32 0, i32* %1, align 4
  %4 = call i32 (i8*, ...) @__isoc99_scanf(i8* getelementptr inbounds ([5 x i8], [5 x i8]* @.str, i64 0, i64 0), i32* %2, i32* %3)
  %5 = load i32, i32* %2, align 4
  %6 = load i32, i32* %2, align 4
  %7 = load i32, i32* %3, align 4
  %8 = call i32 @amount(i32 %5, i32 %6, i32 %7)
  %9 = call i32 (i8*, ...) @printf(i8* getelementptr inbounds ([4 x i8], [4 x i8]* @.str.1, i64 0, i64 0), i32 %8)
  ret i32 0
}

declare dso_local i32 @__isoc99_scanf(i8*, ...) #1

declare dso_local i32 @printf(i8*, ...) #1

; Function Attrs: noinline nounwind uwtable
define dso_local i32 @amount(i32 %0, i32 %1, i32 %2) #0 {
  %4 = alloca i32, align 4
  %5 = alloca i32, align 4
  %6 = alloca i32, align 4
  %7 = alloca i32, align 4
  %8 = alloca i32, align 4
  %9 = alloca i32, align 4
  %10 = alloca i32, align 4
  %11 = alloca i32, align 4
  store i32 %0, i32* %4, align 4
  store i32 %1, i32* %5, align 4
  store i32 %2, i32* %6, align 4
  store i32 0, i32* %7, align 4
  store i32 0, i32* %8, align 4
  store i32 0, i32* %10, align 4
  br label %12

12:                                               ; preds = %53, %3
  %13 = load i32, i32* %8, align 4
  %14 = icmp eq i32 %13, 0
  br i1 %14, label %15, label %54

15:                                               ; preds = %12
  %16 = load i32, i32* %7, align 4
  %17 = add nsw i32 %16, 1
  store i32 %17, i32* %7, align 4
  %18 = load i32, i32* %5, align 4
  %19 = load i32, i32* %7, align 4
  %20 = mul nsw i32 %18, %19
  %21 = load i32, i32* %6, align 4
  %22 = add nsw i32 %20, %21
  store i32 %22, i32* %9, align 4
  store i32 0, i32* %11, align 4
  br label %23

23:                                               ; preds = %50, %15
  %24 = load i32, i32* %11, align 4
  %25 = load i32, i32* %4, align 4
  %26 = sub nsw i32 %25, 1
  %27 = icmp slt i32 %24, %26
  br i1 %27, label %28, label %53

28:                                               ; preds = %23
  %29 = load i32, i32* %9, align 4
  %30 = load i32, i32* %5, align 4
  %31 = sub nsw i32 %30, 1
  %32 = sdiv i32 %29, %31
  %33 = load i32, i32* %5, align 4
  %34 = sub nsw i32 %33, 1
  %35 = mul nsw i32 %32, %34
  %36 = load i32, i32* %9, align 4
  %37 = icmp slt i32 %35, %36
  br i1 %37, label %38, label %39

38:                                               ; preds = %28
  store i32 0, i32* %8, align 4
  br label %53

39:                                               ; preds = %28
  store i32 1, i32* %8, align 4
  br label %40

40:                                               ; preds = %39
  %41 = load i32, i32* %9, align 4
  %42 = load i32, i32* %5, align 4
  %43 = sub nsw i32 %42, 1
  %44 = sdiv i32 %41, %43
  %45 = load i32, i32* %5, align 4
  %46 = mul nsw i32 %44, %45
  %47 = load i32, i32* %6, align 4
  %48 = add nsw i32 %46, %47
  store i32 %48, i32* %10, align 4
  %49 = load i32, i32* %10, align 4
  store i32 %49, i32* %9, align 4
  br label %50

50:                                               ; preds = %40
  %51 = load i32, i32* %11, align 4
  %52 = add nsw i32 %51, 1
  store i32 %52, i32* %11, align 4
  br label %23

53:                                               ; preds = %38, %23
  br label %12

54:                                               ; preds = %12
  %55 = load i32, i32* %10, align 4
  ret i32 %55
}


!llvm.module.flags = !{!0}
!llvm.ident = !{!1}

!0 = !{i32 1, !"wchar_size", i32 4}
!1 = !{!"clang version 10.0.0-4ubuntu1 "}
